(dp0
S'11'
p1
S'Tasks/tasks_1-20_v1-2/en-10k/qa11_basic-coreference_{}.txt'
p2
sS'10'
p3
S'Tasks/tasks_1-20_v1-2/en-10k/qa10_indefinite-knowledge_{}.txt'
p4
sS'13'
p5
S'Tasks/tasks_1-20_v1-2/en-10k/qa13_compound-coreference_{}.txt'
p6
sS'12'
p7
S'Tasks/tasks_1-20_v1-2/en-10k/qa12_conjunction_{}.txt'
p8
sS'15'
p9
S'Tasks/tasks_1-20_v1-2/en-10k/qa15_basic-deduction_{}.txt'
p10
sS'14'
p11
S'Tasks/tasks_1-20_v1-2/en-10k/qa14_time-reasoning_{}.txt'
p12
sS'17'
p13
S'Tasks/tasks_1-20_v1-2/en-10k/qa17_positional-reasoning_{}.txt'
p14
sS'16'
p15
S'Tasks/tasks_1-20_v1-2/en-10k/qa16_basic-induction_{}.txt'
p16
sS'19'
p17
S'Tasks/tasks_1-20_v1-2/en-10k/qa19_path-finding_{}.txt'
p18
sS'18'
p19
S'Tasks/tasks_1-20_v1-2/en-10k/qa18_size-reasoning_{}.txt'
p20
sS'1'
p21
S'Tasks/tasks_1-20_v1-2/en-10k/qa1_single-supporting-fact_{}.txt'
p22
sS'3'
p23
S'Tasks/tasks_1-20_v1-2/en-10k/qa3_three-supporting-facts_{}.txt'
p24
sS'2'
p25
S'Tasks/tasks_1-20_v1-2/en-10k/qa2_two-supporting-facts_{}.txt'
p26
sS'5'
p27
S'Tasks/tasks_1-20_v1-2/en-10k/qa5_three-arg-relations_{}.txt'
p28
sS'4'
p29
S'Tasks/tasks_1-20_v1-2/en-10k/qa4_two-arg-relations_{}.txt'
p30
sS'7'
p31
S'Tasks/tasks_1-20_v1-2/en-10k/qa7_counting_{}.txt'
p32
sS'6'
p33
S'Tasks/tasks_1-20_v1-2/en-10k/qa6_yes-no-questions_{}.txt'
p34
sS'9'
p35
S'Tasks/tasks_1-20_v1-2/en-10k/qa9_simple-negation_{}.txt'
p36
sS'20'
p37
S'Tasks/tasks_1-20_v1-2/en-10k/qa20_agents-motivations_{}.txt'
p38
sS'8'
p39
S'Tasks/tasks_1-20_v1-2/en-10k/qa8_lists-sets_{}.txt'
p40
s.