(dp0
S'\n'
p1
I11
sS'!'
p2
I43
sS' '
p3
I5
sS'$'
p4
I64
sS"'"
p5
I36
sS'&'
p6
I60
sS'-'
p7
I47
sS','
p8
I23
sS'.'
p9
I26
sS'3'
p10
I63
sS';'
p11
I41
sS':'
p12
I10
sS'?'
p13
I32
sS'A'
p14
I27
sS'C'
p15
I6
sS'B'
p16
I12
sS'E'
p17
I50
sS'D'
p18
I52
sS'G'
p19
I57
sS'F'
p20
I0
sS'I'
p21
I38
sS'H'
p22
I49
sS'K'
p23
I58
sS'J'
p24
I56
sS'M'
p25
I34
sS'L'
p26
I37
sS'O'
p27
I44
sS'N'
p28
I39
sS'Q'
p29
I59
sS'P'
p30
I53
sS'S'
p31
I29
sS'R'
p32
I33
sS'U'
p33
I51
sS'T'
p34
I48
sS'W'
p35
I35
sS'V'
p36
I46
sS'Y'
p37
I30
sS'X'
p38
I62
sS'Z'
p39
I61
sS'a'
p40
I19
sS'c'
p41
I17
sS'b'
p42
I42
sS'e'
p43
I8
sS'd'
p44
I18
sS'g'
p45
I40
sS'f'
p46
I13
sS'i'
p47
I1
sS'h'
p48
I22
sS'k'
p49
I25
sS'j'
p50
I45
sS'm'
p51
I24
sS'l'
p52
I28
sS'o'
p53
I14
sS'n'
p54
I9
sS'q'
p55
I54
sS'p'
p56
I16
sS's'
p57
I3
sS'r'
p58
I2
sS'u'
p59
I21
sS't'
p60
I4
sS'w'
p61
I15
sS'v'
p62
I31
sS'y'
p63
I20
sS'x'
p64
I55
sS'z'
p65
I7
s.